Certificate:
    Data:
        Version: 3 (0x2)
        Serial Number: 2 (0x2)
        Signature Algorithm: ecdsa-with-SHA256
        Issuer: C=IT, ST=ROME, L=ROME, O=IPZS, OU=IPZS, CN=IPZS/emailAddress=ipzs10@gmail.com
        Validity
            Not Before: Jun 25 16:02:07 2024 GMT
            Not After : Jun 25 16:02:07 2025 GMT
        Subject: C=IT, ST=NAPOLI, L=BARRA, O=SERVER, OU=SERVER4EVERYONE, CN=www.serverchevoglioio.it/emailAddress=server4everyone77@gmail.com
        Subject Public Key Info:
            Public Key Algorithm: id-ecPublicKey
                Public-Key: (256 bit)
                pub:
                    04:60:3c:10:a3:45:5e:02:ae:51:9a:45:f4:05:92:
                    84:10:ce:50:57:ab:82:bd:51:27:4b:b5:93:8c:97:
                    a9:28:f5:cb:34:ce:20:96:38:35:7b:35:54:f8:c0:
                    94:7e:e7:b3:86:ba:96:27:ae:a5:82:9a:6b:39:d7:
                    29:49:c4:ad:f0
                ASN1 OID: prime256v1
                NIST CURVE: P-256
        X509v3 extensions:
            X509v3 Basic Constraints: 
                CA:FALSE
            X509v3 Subject Key Identifier: 
                26:57:1C:48:93:08:22:50:1A:C6:1B:AB:C5:55:89:11:34:27:9E:27
            X509v3 Authority Key Identifier: 
                6D:B3:1D:DB:E5:3C:D4:4F:1D:78:04:CA:89:E5:DF:18:F8:99:7F:D2
    Signature Algorithm: ecdsa-with-SHA256
    Signature Value:
        30:46:02:21:00:c5:09:1b:4b:34:82:09:53:32:56:59:49:fa:
        0b:0f:83:c3:14:0a:c8:01:af:00:0f:26:30:f2:5a:ac:69:0f:
        9a:02:21:00:b2:6f:12:73:da:90:14:c9:f2:65:98:99:2c:66:
        7a:6b:d8:c6:0e:a8:93:fc:41:e1:61:21:ab:c3:ca:12:09:91
-----BEGIN CERTIFICATE-----
MIICXzCCAgSgAwIBAgIBAjAKBggqhkjOPQQDAjB5MQswCQYDVQQGEwJJVDENMAsG
A1UECAwEUk9NRTENMAsGA1UEBwwEUk9NRTENMAsGA1UECgwESVBaUzENMAsGA1UE
CwwESVBaUzENMAsGA1UEAwwESVBaUzEfMB0GCSqGSIb3DQEJARYQaXB6czEwQGdt
YWlsLmNvbTAeFw0yNDA2MjUxNjAyMDdaFw0yNTA2MjUxNjAyMDdaMIGoMQswCQYD
VQQGEwJJVDEPMA0GA1UECAwGTkFQT0xJMQ4wDAYDVQQHDAVCQVJSQTEPMA0GA1UE
CgwGU0VSVkVSMRgwFgYDVQQLDA9TRVJWRVI0RVZFUllPTkUxITAfBgNVBAMMGHd3
dy5zZXJ2ZXJjaGV2b2dsaW9pby5pdDEqMCgGCSqGSIb3DQEJARYbc2VydmVyNGV2
ZXJ5b25lNzdAZ21haWwuY29tMFkwEwYHKoZIzj0CAQYIKoZIzj0DAQcDQgAEYDwQ
o0VeAq5RmkX0BZKEEM5QV6uCvVEnS7WTjJepKPXLNM4gljg1ezVU+MCUfuezhrqW
J66lgpprOdcpScSt8KNNMEswCQYDVR0TBAIwADAdBgNVHQ4EFgQUJlccSJMIIlAa
xhurxVWJETQnnicwHwYDVR0jBBgwFoAUbbMd2+U81E8deATKieXfGPiZf9IwCgYI
KoZIzj0EAwIDSQAwRgIhAMUJG0s0gglTMlZZSfoLD4PDFArIAa8ADyYw8lqsaQ+a
AiEAsm8Sc9qQFMnyZZiZLGZ6a9jGDqiT/EHhYSGrw8oSCZE=
-----END CERTIFICATE-----
