Certificate:
    Data:
        Version: 3 (0x2)
        Serial Number: 1 (0x1)
        Signature Algorithm: ecdsa-with-SHA256
        Issuer: C=IT, ST=ROME, L=ROME, O=IPZS, OU=IPZS, CN=IPZS/emailAddress=ipzs10@gmail.com
        Validity
            Not Before: Jun 25 16:02:05 2024 GMT
            Not After : Jun 25 16:02:05 2025 GMT
        Subject: C=IT, ST=MILANO, L=MILANO, O=CREDENTIALS, OU=CREDENTIALS, CN=CREDENTIALS/emailAddress=credentials@gmail.com
        Subject Public Key Info:
            Public Key Algorithm: id-ecPublicKey
                Public-Key: (256 bit)
                pub:
                    04:2b:cf:12:3a:1e:dd:94:10:9f:a9:a0:77:87:28:
                    73:66:d5:ec:eb:e6:a6:4f:2f:62:31:ec:59:3a:a4:
                    b5:cc:2c:4e:f0:44:1c:61:cb:ae:fc:3e:50:31:e0:
                    31:eb:26:88:96:2d:78:49:b8:1e:b4:b3:fb:6e:e0:
                    d6:0b:f1:d2:85
                ASN1 OID: prime256v1
                NIST CURVE: P-256
        X509v3 extensions:
            X509v3 Basic Constraints: 
                CA:FALSE
            X509v3 Subject Key Identifier: 
                F6:87:DF:55:83:3A:D5:CD:9B:2B:D1:AE:99:EB:48:55:6B:37:3A:AA
            X509v3 Authority Key Identifier: 
                6D:B3:1D:DB:E5:3C:D4:4F:1D:78:04:CA:89:E5:DF:18:F8:99:7F:D2
    Signature Algorithm: ecdsa-with-SHA256
    Signature Value:
        30:46:02:21:00:9e:92:fe:20:83:6f:92:d6:66:ee:64:d4:38:
        f2:fe:83:b6:a8:92:bc:4c:6b:cb:bc:ab:de:e8:72:12:86:60:
        35:02:21:00:fa:97:7f:44:9e:22:29:49:a6:fe:95:95:04:03:
        6e:17:94:37:04:d6:53:4a:f1:9c:87:cc:44:b8:f6:a9:60:f6
-----BEGIN CERTIFICATE-----
MIICTjCCAfOgAwIBAgIBATAKBggqhkjOPQQDAjB5MQswCQYDVQQGEwJJVDENMAsG
A1UECAwEUk9NRTENMAsGA1UEBwwEUk9NRTENMAsGA1UECgwESVBaUzENMAsGA1UE
CwwESVBaUzENMAsGA1UEAwwESVBaUzEfMB0GCSqGSIb3DQEJARYQaXB6czEwQGdt
YWlsLmNvbTAeFw0yNDA2MjUxNjAyMDVaFw0yNTA2MjUxNjAyMDVaMIGXMQswCQYD
VQQGEwJJVDEPMA0GA1UECAwGTUlMQU5PMQ8wDQYDVQQHDAZNSUxBTk8xFDASBgNV
BAoMC0NSRURFTlRJQUxTMRQwEgYDVQQLDAtDUkVERU5USUFMUzEUMBIGA1UEAwwL
Q1JFREVOVElBTFMxJDAiBgkqhkiG9w0BCQEWFWNyZWRlbnRpYWxzQGdtYWlsLmNv
bTBZMBMGByqGSM49AgEGCCqGSM49AwEHA0IABCvPEjoe3ZQQn6mgd4coc2bV7Ovm
pk8vYjHsWTqktcwsTvBEHGHLrvw+UDHgMesmiJYteEm4HrSz+27g1gvx0oWjTTBL
MAkGA1UdEwQCMAAwHQYDVR0OBBYEFPaH31WDOtXNmyvRrpnrSFVrNzqqMB8GA1Ud
IwQYMBaAFG2zHdvlPNRPHXgEyonl3xj4mX/SMAoGCCqGSM49BAMCA0kAMEYCIQCe
kv4gg2+S1mbuZNQ48v6DtqiSvExry7yr3uhyEoZgNQIhAPqXf0SeIilJpv6VlQQD
bheUNwTWU0rxnIfMRLj2qWD2
-----END CERTIFICATE-----
