Certificate:
    Data:
        Version: 3 (0x2)
        Serial Number: 2 (0x2)
        Signature Algorithm: ecdsa-with-SHA256
        Issuer: C=IT, ST=NA, L=NA, O=IPZS, OU=IPZS UN, CN=IPZS CN/emailAddress=sfawsfe
        Validity
            Not Before: Jul  8 17:39:00 2024 GMT
            Not After : Jul  8 17:39:00 2025 GMT
        Subject: C=IT, ST=NAPOLI, L=BARRA, O=SERVER, OU=SERVER4EVERYONE, CN=www.serverchevoglioio.it/emailAddress=server4everyone77@gmail.com
        Subject Public Key Info:
            Public Key Algorithm: id-ecPublicKey
                Public-Key: (256 bit)
                pub:
                    04:67:21:f0:8b:aa:c7:4b:83:26:eb:89:19:6c:70:
                    9b:f1:51:51:45:67:bc:31:bf:c1:7f:d7:fa:58:f6:
                    bf:a1:71:25:6f:b6:a4:39:97:50:46:65:67:7e:9b:
                    ba:0b:b7:cc:12:9f:49:a7:39:7b:46:d5:b2:1c:58:
                    25:bc:eb:94:dc
                ASN1 OID: prime256v1
                NIST CURVE: P-256
        X509v3 extensions:
            X509v3 Basic Constraints: 
                CA:FALSE
            X509v3 Subject Key Identifier: 
                F4:92:28:8A:AE:B8:1A:E3:5E:1D:47:3D:F4:19:FD:94:AC:84:09:84
            X509v3 Authority Key Identifier: 
                2F:8D:84:24:91:8A:40:E6:B4:E0:2E:27:7F:54:B1:7A:37:CF:7B:40
    Signature Algorithm: ecdsa-with-SHA256
    Signature Value:
        30:46:02:21:00:ee:bb:4e:53:3f:cb:b6:1b:33:d5:49:fe:25:
        04:3e:3c:92:57:8f:74:9d:57:5f:64:ad:e3:ad:3f:d8:68:5f:
        32:02:21:00:e5:5e:13:1b:4d:ec:47:ed:96:11:cd:29:64:ac:
        45:41:0e:4f:49:89:c7:50:71:e0:7d:a4:32:87:8c:af:73:fe
-----BEGIN CERTIFICATE-----
MIICWDCCAf2gAwIBAgIBAjAKBggqhkjOPQQDAjByMQswCQYDVQQGEwJJVDELMAkG
A1UECAwCTkExCzAJBgNVBAcMAk5BMQ0wCwYDVQQKDARJUFpTMRAwDgYDVQQLDAdJ
UFpTIFVOMRAwDgYDVQQDDAdJUFpTIENOMRYwFAYJKoZIhvcNAQkBFgdzZmF3c2Zl
MB4XDTI0MDcwODE3MzkwMFoXDTI1MDcwODE3MzkwMFowgagxCzAJBgNVBAYTAklU
MQ8wDQYDVQQIDAZOQVBPTEkxDjAMBgNVBAcMBUJBUlJBMQ8wDQYDVQQKDAZTRVJW
RVIxGDAWBgNVBAsMD1NFUlZFUjRFVkVSWU9ORTEhMB8GA1UEAwwYd3d3LnNlcnZl
cmNoZXZvZ2xpb2lvLml0MSowKAYJKoZIhvcNAQkBFhtzZXJ2ZXI0ZXZlcnlvbmU3
N0BnbWFpbC5jb20wWTATBgcqhkjOPQIBBggqhkjOPQMBBwNCAARnIfCLqsdLgybr
iRlscJvxUVFFZ7wxv8F/1/pY9r+hcSVvtqQ5l1BGZWd+m7oLt8wSn0mnOXtG1bIc
WCW865Tco00wSzAJBgNVHRMEAjAAMB0GA1UdDgQWBBT0kiiKrrga414dRz30Gf2U
rIQJhDAfBgNVHSMEGDAWgBQvjYQkkYpA5rTgLid/VLF6N897QDAKBggqhkjOPQQD
AgNJADBGAiEA7rtOUz/Lthsz1Un+JQQ+PJJXj3SdV19kreOtP9hoXzICIQDlXhMb
TexH7ZYRzSlkrEVBDk9JicdQceB9pDKHjK9z/g==
-----END CERTIFICATE-----
