Certificate:
    Data:
        Version: 3 (0x2)
        Serial Number: 0 (0x0)
        Signature Algorithm: ecdsa-with-SHA256
        Issuer: C=it, ST=aa, L=aa, O=ipzs, OU=ipzs, CN=ipzs/emailAddress=ipzs
        Validity
            Not Before: Jul  8 14:10:03 2024 GMT
            Not After : Jul  8 14:10:03 2025 GMT
        Subject: C=IT, ST=SALERNO, L=FISCIANO, O=UNISA, OU=DIEM, CN=APSPROJECT/emailAddress=client@gmail.com
        Subject Public Key Info:
            Public Key Algorithm: id-ecPublicKey
                Public-Key: (256 bit)
                pub:
                    04:db:42:c5:6d:68:39:aa:6c:16:e8:bf:4b:f8:48:
                    70:23:67:2d:f1:bf:d6:c4:12:42:8e:99:99:24:dc:
                    61:90:74:43:f2:04:02:03:b4:50:9c:6c:22:84:18:
                    75:20:b1:6c:01:11:14:5e:93:d7:fd:af:02:e6:a8:
                    e7:e5:32:93:c1
                ASN1 OID: prime256v1
                NIST CURVE: P-256
        X509v3 extensions:
            X509v3 Basic Constraints: 
                CA:FALSE
            X509v3 Subject Key Identifier: 
                08:68:ED:2C:F1:C1:7F:19:03:08:CB:2B:25:5C:CE:DD:87:CD:FA:45
            X509v3 Authority Key Identifier: 
                FC:3D:9F:DA:AF:F1:47:7E:8B:8B:74:13:09:38:85:91:A6:DC:B4:11
    Signature Algorithm: ecdsa-with-SHA256
    Signature Value:
        30:45:02:20:40:d4:96:c1:18:10:4b:6a:b7:55:1e:81:a0:90:
        14:0a:eb:bc:3a:22:f1:5c:99:33:82:1e:49:7d:0c:1c:3a:c1:
        02:21:00:fd:e0:85:03:3f:26:1d:dc:a6:91:13:75:8d:cd:1b:
        a6:d0:38:07:6d:d0:50:45:07:a6:79:78:03:31:16:ab:ea
-----BEGIN CERTIFICATE-----
MIICLTCCAdOgAwIBAgIBADAKBggqhkjOPQQDAjBpMQswCQYDVQQGEwJpdDELMAkG
A1UECAwCYWExCzAJBgNVBAcMAmFhMQ0wCwYDVQQKDARpcHpzMQ0wCwYDVQQLDARp
cHpzMQ0wCwYDVQQDDARpcHpzMRMwEQYJKoZIhvcNAQkBFgRpcHpzMB4XDTI0MDcw
ODE0MTAwM1oXDTI1MDcwODE0MTAwM1owgYcxCzAJBgNVBAYTAklUMRAwDgYDVQQI
DAdTQUxFUk5PMREwDwYDVQQHDAhGSVNDSUFOTzEOMAwGA1UECgwFVU5JU0ExDTAL
BgNVBAsMBERJRU0xEzARBgNVBAMMCkFQU1BST0pFQ1QxHzAdBgkqhkiG9w0BCQEW
EGNsaWVudEBnbWFpbC5jb20wWTATBgcqhkjOPQIBBggqhkjOPQMBBwNCAATbQsVt
aDmqbBbov0v4SHAjZy3xv9bEEkKOmZkk3GGQdEPyBAIDtFCcbCKEGHUgsWwBERRe
k9f9rwLmqOflMpPBo00wSzAJBgNVHRMEAjAAMB0GA1UdDgQWBBQIaO0s8cF/GQMI
yyslXM7dh836RTAfBgNVHSMEGDAWgBT8PZ/ar/FHfouLdBMJOIWRpty0ETAKBggq
hkjOPQQDAgNIADBFAiBA1JbBGBBLardVHoGgkBQK67w6IvFcmTOCHkl9DBw6wQIh
AP3ghQM/Jh3cppETdY3NG6bQOAdt0FBFB6Z5eAMxFqvq
-----END CERTIFICATE-----
Certificate:
    Data:
        Version: 3 (0x2)
        Serial Number: 0 (0x0)
        Signature Algorithm: ecdsa-with-SHA256
        Issuer: C=it, ST=bb, L=bb, O=cred2, OU=cred2, CN=cred2/emailAddress=cred2
        Validity
            Not Before: Jul  8 14:18:08 2024 GMT
            Not After : Jul  8 14:18:08 2025 GMT
        Subject: C=IT, ST=SALERNO, L=FISCIANO, O=UNISA, OU=DIEM, CN=APSPROJECT/emailAddress=client@gmail.com
        Subject Public Key Info:
            Public Key Algorithm: id-ecPublicKey
                Public-Key: (256 bit)
                pub:
                    04:db:42:c5:6d:68:39:aa:6c:16:e8:bf:4b:f8:48:
                    70:23:67:2d:f1:bf:d6:c4:12:42:8e:99:99:24:dc:
                    61:90:74:43:f2:04:02:03:b4:50:9c:6c:22:84:18:
                    75:20:b1:6c:01:11:14:5e:93:d7:fd:af:02:e6:a8:
                    e7:e5:32:93:c1
                ASN1 OID: prime256v1
                NIST CURVE: P-256
        X509v3 extensions:
            X509v3 Basic Constraints: 
                CA:FALSE
            X509v3 Subject Key Identifier: 
                08:68:ED:2C:F1:C1:7F:19:03:08:CB:2B:25:5C:CE:DD:87:CD:FA:45
            X509v3 Authority Key Identifier: 
                CD:F4:F3:B6:1C:39:A1:38:25:E6:1A:ED:AA:04:49:40:8E:EA:A3:4D
    Signature Algorithm: ecdsa-with-SHA256
    Signature Value:
        30:45:02:21:00:d9:a0:79:f5:3a:a6:cc:f2:7c:39:26:0b:02:
        a5:87:0a:c4:91:dc:3a:5a:6c:37:bd:96:9f:52:28:64:41:d1:
        e1:02:20:4f:07:98:ce:36:4a:a6:ca:56:30:d9:39:5b:aa:02:
        5d:b1:7f:cc:59:ed:85:a8:ee:3e:4a:87:d0:1a:30:8d:cc
-----BEGIN CERTIFICATE-----
MIICMTCCAdegAwIBAgIBADAKBggqhkjOPQQDAjBtMQswCQYDVQQGEwJpdDELMAkG
A1UECAwCYmIxCzAJBgNVBAcMAmJiMQ4wDAYDVQQKDAVjcmVkMjEOMAwGA1UECwwF
Y3JlZDIxDjAMBgNVBAMMBWNyZWQyMRQwEgYJKoZIhvcNAQkBFgVjcmVkMjAeFw0y
NDA3MDgxNDE4MDhaFw0yNTA3MDgxNDE4MDhaMIGHMQswCQYDVQQGEwJJVDEQMA4G
A1UECAwHU0FMRVJOTzERMA8GA1UEBwwIRklTQ0lBTk8xDjAMBgNVBAoMBVVOSVNB
MQ0wCwYDVQQLDARESUVNMRMwEQYDVQQDDApBUFNQUk9KRUNUMR8wHQYJKoZIhvcN
AQkBFhBjbGllbnRAZ21haWwuY29tMFkwEwYHKoZIzj0CAQYIKoZIzj0DAQcDQgAE
20LFbWg5qmwW6L9L+EhwI2ct8b/WxBJCjpmZJNxhkHRD8gQCA7RQnGwihBh1ILFs
AREUXpPX/a8C5qjn5TKTwaNNMEswCQYDVR0TBAIwADAdBgNVHQ4EFgQUCGjtLPHB
fxkDCMsrJVzO3YfN+kUwHwYDVR0jBBgwFoAUzfTzthw5oTgl5hrtqgRJQI7qo00w
CgYIKoZIzj0EAwIDSAAwRQIhANmgefU6pszyfDkmCwKlhwrEkdw6Wmw3vZafUihk
QdHhAiBPB5jONkqmylYw2TlbqgJdsX/MWe2FqO4+SofQGjCNzA==
-----END CERTIFICATE-----
-----BEGIN CERTIFICATE-----
MIICJjCCAc2gAwIBAgIUfqkEjd+jeRF6/WXbiN+2bkcEtO4wCgYIKoZIzj0EAwIw
aTELMAkGA1UEBhMCaXQxCzAJBgNVBAgMAmFhMQswCQYDVQQHDAJhYTENMAsGA1UE
CgwEaXB6czENMAsGA1UECwwEaXB6czENMAsGA1UEAwwEaXB6czETMBEGCSqGSIb3
DQEJARYEaXB6czAeFw0yNDA3MDgxNDEwMDJaFw0yNTA3MDgxNDEwMDJaMGkxCzAJ
BgNVBAYTAml0MQswCQYDVQQIDAJhYTELMAkGA1UEBwwCYWExDTALBgNVBAoMBGlw
enMxDTALBgNVBAsMBGlwenMxDTALBgNVBAMMBGlwenMxEzARBgkqhkiG9w0BCQEW
BGlwenMwWTATBgcqhkjOPQIBBggqhkjOPQMBBwNCAAR+eKUUfTV2/h2kIUu2R73W
rLLnqrsOQ1t7UC5ukbP87WQnBcw3YfT8+NNt5xa4XyO+X6xAtUgY/wQjfvlZzeV7
o1MwUTAdBgNVHQ4EFgQU/D2f2q/xR36Li3QTCTiFkabctBEwHwYDVR0jBBgwFoAU
/D2f2q/xR36Li3QTCTiFkabctBEwDwYDVR0TAQH/BAUwAwEB/zAKBggqhkjOPQQD
AgNHADBEAiBJa4xjWGnwXhh8CBuTQlBX2zWqy/K7HkV/5QeDOjyDuAIgA9NfZFTw
4DYuDU8yZuu6LIctbyN3/yqqTRtfF938qls=
-----END CERTIFICATE-----
