Certificate:
    Data:
        Version: 3 (0x2)
        Serial Number: 1 (0x1)
        Signature Algorithm: ecdsa-with-SHA256
        Issuer: C=IT, ST=NA, L=NA, O=IPZS, OU=IPZS UN, CN=IPZS CN/emailAddress=sfawsfe
        Validity
            Not Before: Jul  8 17:38:32 2024 GMT
            Not After : Jul  8 17:38:32 2025 GMT
        Subject: C=IT, ST=MILANO, L=MILANO, O=CREDENTIALS, OU=CREDENTIALS, CN=CREDENTIALS/emailAddress=credentials@gmail.com
        Subject Public Key Info:
            Public Key Algorithm: id-ecPublicKey
                Public-Key: (256 bit)
                pub:
                    04:99:5d:fd:d7:48:83:05:a3:ca:58:dd:26:70:46:
                    eb:ab:7d:e8:ff:9f:8a:d1:34:0a:9f:fb:8d:69:a8:
                    9e:7f:cd:b0:e1:3a:91:8b:76:42:54:de:5b:4c:cd:
                    2a:32:a3:87:ae:60:8a:62:55:99:2d:71:e0:ac:5a:
                    54:cf:cb:8b:aa
                ASN1 OID: prime256v1
                NIST CURVE: P-256
        X509v3 extensions:
            X509v3 Basic Constraints: 
                CA:FALSE
            X509v3 Subject Key Identifier: 
                B8:9B:F9:BD:03:18:35:38:D7:9C:61:24:7F:4D:90:5A:D7:EC:B3:CF
            X509v3 Authority Key Identifier: 
                2F:8D:84:24:91:8A:40:E6:B4:E0:2E:27:7F:54:B1:7A:37:CF:7B:40
    Signature Algorithm: ecdsa-with-SHA256
    Signature Value:
        30:46:02:21:00:f4:4b:36:1b:eb:38:3e:3a:81:9d:19:b0:8e:
        6c:57:37:2e:c8:78:33:b5:ae:37:dd:c4:9b:56:60:9a:4a:36:
        d4:02:21:00:c4:39:9e:3e:30:7a:cf:b9:92:36:19:cd:31:55:
        88:f9:67:d3:13:e0:0b:30:c0:f7:2b:b9:48:e7:41:7d:ff:71
-----BEGIN CERTIFICATE-----
MIICRzCCAeygAwIBAgIBATAKBggqhkjOPQQDAjByMQswCQYDVQQGEwJJVDELMAkG
A1UECAwCTkExCzAJBgNVBAcMAk5BMQ0wCwYDVQQKDARJUFpTMRAwDgYDVQQLDAdJ
UFpTIFVOMRAwDgYDVQQDDAdJUFpTIENOMRYwFAYJKoZIhvcNAQkBFgdzZmF3c2Zl
MB4XDTI0MDcwODE3MzgzMloXDTI1MDcwODE3MzgzMlowgZcxCzAJBgNVBAYTAklU
MQ8wDQYDVQQIDAZNSUxBTk8xDzANBgNVBAcMBk1JTEFOTzEUMBIGA1UECgwLQ1JF
REVOVElBTFMxFDASBgNVBAsMC0NSRURFTlRJQUxTMRQwEgYDVQQDDAtDUkVERU5U
SUFMUzEkMCIGCSqGSIb3DQEJARYVY3JlZGVudGlhbHNAZ21haWwuY29tMFkwEwYH
KoZIzj0CAQYIKoZIzj0DAQcDQgAEmV3910iDBaPKWN0mcEbrq33o/5+K0TQKn/uN
aaief82w4TqRi3ZCVN5bTM0qMqOHrmCKYlWZLXHgrFpUz8uLqqNNMEswCQYDVR0T
BAIwADAdBgNVHQ4EFgQUuJv5vQMYNTjXnGEkf02QWtfss88wHwYDVR0jBBgwFoAU
L42EJJGKQOa04C4nf1SxejfPe0AwCgYIKoZIzj0EAwIDSQAwRgIhAPRLNhvrOD46
gZ0ZsI5sVzcuyHgzta433cSbVmCaSjbUAiEAxDmePjB6z7mSNhnNMVWI+WfTE+AL
MMD3K7lI50F9/3E=
-----END CERTIFICATE-----
-----BEGIN CERTIFICATE-----
MIICOjCCAd+gAwIBAgIUPUhzUET692NKkYeUILvKtIK2EqgwCgYIKoZIzj0EAwIw
cjELMAkGA1UEBhMCSVQxCzAJBgNVBAgMAk5BMQswCQYDVQQHDAJOQTENMAsGA1UE
CgwESVBaUzEQMA4GA1UECwwHSVBaUyBVTjEQMA4GA1UEAwwHSVBaUyBDTjEWMBQG
CSqGSIb3DQEJARYHc2Zhd3NmZTAeFw0yNDA3MDgxNzMxMjFaFw0yNTA3MDgxNzMx
MjFaMHIxCzAJBgNVBAYTAklUMQswCQYDVQQIDAJOQTELMAkGA1UEBwwCTkExDTAL
BgNVBAoMBElQWlMxEDAOBgNVBAsMB0lQWlMgVU4xEDAOBgNVBAMMB0lQWlMgQ04x
FjAUBgkqhkiG9w0BCQEWB3NmYXdzZmUwWTATBgcqhkjOPQIBBggqhkjOPQMBBwNC
AAT/wBcKK9cZkkz6K7ppQzey3xOaa9ma0Ev85rE+bXkxR/vhVU4AwYm4y6BJjvCj
x1fGx/DQNC2cRg09Oze1ZzYLo1MwUTAdBgNVHQ4EFgQUL42EJJGKQOa04C4nf1Sx
ejfPe0AwHwYDVR0jBBgwFoAUL42EJJGKQOa04C4nf1SxejfPe0AwDwYDVR0TAQH/
BAUwAwEB/zAKBggqhkjOPQQDAgNJADBGAiEAl2G9GEMBBAHXuRYZSI+ZSsvi9P0u
YamW69+Ierf8yR4CIQCzpJLb+AyHg7oZZJyCxYRbsv5qJHbldjkEqSgf7Uz9NQ==
-----END CERTIFICATE-----
