Certificate:
    Data:
        Version: 3 (0x2)
        Serial Number: 2 (0x2)
        Signature Algorithm: ecdsa-with-SHA256
        Issuer: C=it, ST=aa, L=aa, O=ipzs, OU=ipzs, CN=ipzs/emailAddress=ipzs
        Validity
            Not Before: Jul  8 14:10:08 2024 GMT
            Not After : Jul  8 14:10:08 2025 GMT
        Subject: C=IT, ST=NAPOLI, L=BARRA, O=SERVER, OU=SERVER4EVERYONE, CN=www.serverchevoglioio.it/emailAddress=server4everyone77@gmail.com
        Subject Public Key Info:
            Public Key Algorithm: id-ecPublicKey
                Public-Key: (256 bit)
                pub:
                    04:5c:22:af:1d:ba:9c:f4:60:88:e9:93:8e:7a:03:
                    28:2c:1f:70:cc:01:af:92:30:18:4b:b9:60:57:d8:
                    26:a9:19:83:12:ea:46:79:ad:f2:23:4b:52:59:4b:
                    14:9c:f4:d3:dd:e0:93:bf:6f:f4:ad:cf:64:81:cd:
                    35:af:e4:fe:b4
                ASN1 OID: prime256v1
                NIST CURVE: P-256
        X509v3 extensions:
            X509v3 Basic Constraints: 
                CA:FALSE
            X509v3 Subject Key Identifier: 
                9F:2A:F2:50:60:CC:AB:9F:5E:65:B4:AF:9E:D3:EA:0C:A9:57:36:83
            X509v3 Authority Key Identifier: 
                FC:3D:9F:DA:AF:F1:47:7E:8B:8B:74:13:09:38:85:91:A6:DC:B4:11
    Signature Algorithm: ecdsa-with-SHA256
    Signature Value:
        30:45:02:20:08:1a:90:9e:54:07:b4:a5:f5:58:9b:3f:ab:85:
        22:da:68:fb:bc:41:fc:15:16:2a:ba:89:6d:1d:5c:58:40:de:
        02:21:00:91:a4:2b:c0:0b:e6:a6:de:97:6c:09:86:40:06:89:
        7b:70:00:16:36:6e:58:a1:85:e5:32:af:96:4f:84:56:fd
-----BEGIN CERTIFICATE-----
MIICTjCCAfSgAwIBAgIBAjAKBggqhkjOPQQDAjBpMQswCQYDVQQGEwJpdDELMAkG
A1UECAwCYWExCzAJBgNVBAcMAmFhMQ0wCwYDVQQKDARpcHpzMQ0wCwYDVQQLDARp
cHpzMQ0wCwYDVQQDDARpcHpzMRMwEQYJKoZIhvcNAQkBFgRpcHpzMB4XDTI0MDcw
ODE0MTAwOFoXDTI1MDcwODE0MTAwOFowgagxCzAJBgNVBAYTAklUMQ8wDQYDVQQI
DAZOQVBPTEkxDjAMBgNVBAcMBUJBUlJBMQ8wDQYDVQQKDAZTRVJWRVIxGDAWBgNV
BAsMD1NFUlZFUjRFVkVSWU9ORTEhMB8GA1UEAwwYd3d3LnNlcnZlcmNoZXZvZ2xp
b2lvLml0MSowKAYJKoZIhvcNAQkBFhtzZXJ2ZXI0ZXZlcnlvbmU3N0BnbWFpbC5j
b20wWTATBgcqhkjOPQIBBggqhkjOPQMBBwNCAARcIq8dupz0YIjpk456AygsH3DM
Aa+SMBhLuWBX2CapGYMS6kZ5rfIjS1JZSxSc9NPd4JO/b/Stz2SBzTWv5P60o00w
SzAJBgNVHRMEAjAAMB0GA1UdDgQWBBSfKvJQYMyrn15ltK+e0+oMqVc2gzAfBgNV
HSMEGDAWgBT8PZ/ar/FHfouLdBMJOIWRpty0ETAKBggqhkjOPQQDAgNIADBFAiAI
GpCeVAe0pfVYmz+rhSLaaPu8QfwVFiq6iW0dXFhA3gIhAJGkK8AL5qbel2wJhkAG
iXtwABY2blihheUyr5ZPhFb9
-----END CERTIFICATE-----
-----BEGIN CERTIFICATE-----
MIICJjCCAc2gAwIBAgIUfqkEjd+jeRF6/WXbiN+2bkcEtO4wCgYIKoZIzj0EAwIw
aTELMAkGA1UEBhMCaXQxCzAJBgNVBAgMAmFhMQswCQYDVQQHDAJhYTENMAsGA1UE
CgwEaXB6czENMAsGA1UECwwEaXB6czENMAsGA1UEAwwEaXB6czETMBEGCSqGSIb3
DQEJARYEaXB6czAeFw0yNDA3MDgxNDEwMDJaFw0yNTA3MDgxNDEwMDJaMGkxCzAJ
BgNVBAYTAml0MQswCQYDVQQIDAJhYTELMAkGA1UEBwwCYWExDTALBgNVBAoMBGlw
enMxDTALBgNVBAsMBGlwenMxDTALBgNVBAMMBGlwenMxEzARBgkqhkiG9w0BCQEW
BGlwenMwWTATBgcqhkjOPQIBBggqhkjOPQMBBwNCAAR+eKUUfTV2/h2kIUu2R73W
rLLnqrsOQ1t7UC5ukbP87WQnBcw3YfT8+NNt5xa4XyO+X6xAtUgY/wQjfvlZzeV7
o1MwUTAdBgNVHQ4EFgQU/D2f2q/xR36Li3QTCTiFkabctBEwHwYDVR0jBBgwFoAU
/D2f2q/xR36Li3QTCTiFkabctBEwDwYDVR0TAQH/BAUwAwEB/zAKBggqhkjOPQQD
AgNHADBEAiBJa4xjWGnwXhh8CBuTQlBX2zWqy/K7HkV/5QeDOjyDuAIgA9NfZFTw
4DYuDU8yZuu6LIctbyN3/yqqTRtfF938qls=
-----END CERTIFICATE-----
