Certificate:
    Data:
        Version: 3 (0x2)
        Serial Number: 0 (0x0)
        Signature Algorithm: ecdsa-with-SHA256
        Issuer: C=IT, ST=ROME, L=ROME, O=IPZS, OU=IPZS, CN=IPZS/emailAddress=ipzs10@gmail.com
        Validity
            Not Before: Jun 25 16:02:02 2024 GMT
            Not After : Jun 25 16:02:02 2025 GMT
        Subject: C=IT, ST=SALERNO, L=FISCIANO, O=UNISA, OU=DIEM, CN=APSPROJECT/emailAddress=client23@gmail.com
        Subject Public Key Info:
            Public Key Algorithm: id-ecPublicKey
                Public-Key: (256 bit)
                pub:
                    04:d0:49:9a:ec:0b:a7:1d:a4:9e:31:5d:2b:39:05:
                    f4:cd:b8:ab:d7:18:4d:38:13:bd:8b:b1:07:34:b0:
                    50:dc:f9:31:f6:5a:75:58:e1:e4:6c:31:0f:83:6a:
                    04:1a:63:8f:b1:6e:8d:ee:2b:9e:b6:1f:02:0f:46:
                    28:71:18:4a:98
                ASN1 OID: prime256v1
                NIST CURVE: P-256
        X509v3 extensions:
            X509v3 Basic Constraints: 
                CA:FALSE
            X509v3 Subject Key Identifier: 
                A2:0F:02:C7:3F:E9:22:8E:5F:DE:DB:22:56:FD:62:8C:77:B0:08:25
            X509v3 Authority Key Identifier: 
                6D:B3:1D:DB:E5:3C:D4:4F:1D:78:04:CA:89:E5:DF:18:F8:99:7F:D2
    Signature Algorithm: ecdsa-with-SHA256
    Signature Value:
        30:45:02:21:00:9c:8a:f8:d9:b8:21:06:2d:d7:2e:44:78:e1:
        56:87:b7:06:c2:11:43:99:9f:d4:67:59:a0:90:9a:bb:52:75:
        b3:02:20:49:bd:8d:e8:a5:44:ec:2b:d8:7c:ef:42:a6:d2:c5:
        df:0b:46:8a:a9:8c:ad:13:a9:58:c2:b5:f3:8b:26:66:05
-----BEGIN CERTIFICATE-----
MIICPzCCAeWgAwIBAgIBADAKBggqhkjOPQQDAjB5MQswCQYDVQQGEwJJVDENMAsG
A1UECAwEUk9NRTENMAsGA1UEBwwEUk9NRTENMAsGA1UECgwESVBaUzENMAsGA1UE
CwwESVBaUzENMAsGA1UEAwwESVBaUzEfMB0GCSqGSIb3DQEJARYQaXB6czEwQGdt
YWlsLmNvbTAeFw0yNDA2MjUxNjAyMDJaFw0yNTA2MjUxNjAyMDJaMIGJMQswCQYD
VQQGEwJJVDEQMA4GA1UECAwHU0FMRVJOTzERMA8GA1UEBwwIRklTQ0lBTk8xDjAM
BgNVBAoMBVVOSVNBMQ0wCwYDVQQLDARESUVNMRMwEQYDVQQDDApBUFNQUk9KRUNU
MSEwHwYJKoZIhvcNAQkBFhJjbGllbnQyM0BnbWFpbC5jb20wWTATBgcqhkjOPQIB
BggqhkjOPQMBBwNCAATQSZrsC6cdpJ4xXSs5BfTNuKvXGE04E72LsQc0sFDc+TH2
WnVY4eRsMQ+DagQaY4+xbo3uK562HwIPRihxGEqYo00wSzAJBgNVHRMEAjAAMB0G
A1UdDgQWBBSiDwLHP+kijl/e2yJW/WKMd7AIJTAfBgNVHSMEGDAWgBRtsx3b5TzU
Tx14BMqJ5d8Y+Jl/0jAKBggqhkjOPQQDAgNIADBFAiEAnIr42bghBi3XLkR44VaH
twbCEUOZn9RnWaCQmrtSdbMCIEm9jeilROwr2HzvQqbSxd8LRoqpjK0TqVjCtfOL
JmYF
-----END CERTIFICATE-----
