Certificate:
    Data:
        Version: 3 (0x2)
        Serial Number: 0 (0x0)
        Signature Algorithm: ecdsa-with-SHA256
        Issuer: C=IT, ST=NA, L=NA, O=IPZS, OU=IPZS UN, CN=IPZS CN/emailAddress=sfawsfe
        Validity
            Not Before: Jul  8 17:36:20 2024 GMT
            Not After : Jul  8 17:36:20 2025 GMT
        Subject: C=IT, ST=SALERNO, L=FISCIANO, O=UNISA, OU=DIEM, CN=APSPROJECT/emailAddress=client@gmail.com
        Subject Public Key Info:
            Public Key Algorithm: id-ecPublicKey
                Public-Key: (256 bit)
                pub:
                    04:d8:11:3d:bc:45:2e:c1:d1:5e:d6:68:22:2e:a1:
                    bd:a9:f3:4f:62:77:51:c3:79:a9:7d:28:8e:df:b2:
                    4c:72:75:be:61:83:5e:03:60:d1:5b:da:6a:aa:06:
                    69:b9:15:5e:cc:00:2e:0e:1c:99:8f:3f:f0:01:8f:
                    59:7d:aa:e7:76
                ASN1 OID: prime256v1
                NIST CURVE: P-256
        X509v3 extensions:
            X509v3 Basic Constraints: 
                CA:FALSE
            X509v3 Subject Key Identifier: 
                2F:AE:00:96:DD:4A:52:E7:5A:BD:95:21:F2:66:E5:88:70:89:44:8F
            X509v3 Authority Key Identifier: 
                2F:8D:84:24:91:8A:40:E6:B4:E0:2E:27:7F:54:B1:7A:37:CF:7B:40
    Signature Algorithm: ecdsa-with-SHA256
    Signature Value:
        30:46:02:21:00:d0:3c:0f:28:56:fb:29:62:6a:c1:e8:94:b6:
        1e:03:8a:01:4c:f9:8f:a8:fd:61:d6:f4:df:5a:ad:d2:0b:c5:
        d6:02:21:00:9b:60:49:34:09:31:b3:0d:5c:cb:55:c1:d7:5b:
        5c:d7:f7:ad:41:29:d6:38:1d:07:2e:8d:ca:aa:03:df:84:58
-----BEGIN CERTIFICATE-----
MIICNzCCAdygAwIBAgIBADAKBggqhkjOPQQDAjByMQswCQYDVQQGEwJJVDELMAkG
A1UECAwCTkExCzAJBgNVBAcMAk5BMQ0wCwYDVQQKDARJUFpTMRAwDgYDVQQLDAdJ
UFpTIFVOMRAwDgYDVQQDDAdJUFpTIENOMRYwFAYJKoZIhvcNAQkBFgdzZmF3c2Zl
MB4XDTI0MDcwODE3MzYyMFoXDTI1MDcwODE3MzYyMFowgYcxCzAJBgNVBAYTAklU
MRAwDgYDVQQIDAdTQUxFUk5PMREwDwYDVQQHDAhGSVNDSUFOTzEOMAwGA1UECgwF
VU5JU0ExDTALBgNVBAsMBERJRU0xEzARBgNVBAMMCkFQU1BST0pFQ1QxHzAdBgkq
hkiG9w0BCQEWEGNsaWVudEBnbWFpbC5jb20wWTATBgcqhkjOPQIBBggqhkjOPQMB
BwNCAATYET28RS7B0V7WaCIuob2p809id1HDeal9KI7fskxydb5hg14DYNFb2mqq
Bmm5FV7MAC4OHJmPP/ABj1l9qud2o00wSzAJBgNVHRMEAjAAMB0GA1UdDgQWBBQv
rgCW3UpS51q9lSHyZuWIcIlEjzAfBgNVHSMEGDAWgBQvjYQkkYpA5rTgLid/VLF6
N897QDAKBggqhkjOPQQDAgNJADBGAiEA0DwPKFb7KWJqweiUth4DigFM+Y+o/WHW
9N9ardILxdYCIQCbYEk0CTGzDVzLVcHXW1zX961BKdY4HQcujcqqA9+EWA==
-----END CERTIFICATE-----
