Certificate:
    Data:
        Version: 3 (0x2)
        Serial Number: 0 (0x0)
        Signature Algorithm: ecdsa-with-SHA256
        Issuer: C=it, ST=aa, L=aa, O=ipzs, OU=ipzs, CN=ipzs/emailAddress=ipzs
        Validity
            Not Before: Jul  8 14:10:03 2024 GMT
            Not After : Jul  8 14:10:03 2025 GMT
        Subject: C=IT, ST=SALERNO, L=FISCIANO, O=UNISA, OU=DIEM, CN=APSPROJECT/emailAddress=client@gmail.com
        Subject Public Key Info:
            Public Key Algorithm: id-ecPublicKey
                Public-Key: (256 bit)
                pub:
                    04:db:42:c5:6d:68:39:aa:6c:16:e8:bf:4b:f8:48:
                    70:23:67:2d:f1:bf:d6:c4:12:42:8e:99:99:24:dc:
                    61:90:74:43:f2:04:02:03:b4:50:9c:6c:22:84:18:
                    75:20:b1:6c:01:11:14:5e:93:d7:fd:af:02:e6:a8:
                    e7:e5:32:93:c1
                ASN1 OID: prime256v1
                NIST CURVE: P-256
        X509v3 extensions:
            X509v3 Basic Constraints: 
                CA:FALSE
            X509v3 Subject Key Identifier: 
                08:68:ED:2C:F1:C1:7F:19:03:08:CB:2B:25:5C:CE:DD:87:CD:FA:45
            X509v3 Authority Key Identifier: 
                FC:3D:9F:DA:AF:F1:47:7E:8B:8B:74:13:09:38:85:91:A6:DC:B4:11
    Signature Algorithm: ecdsa-with-SHA256
    Signature Value:
        30:45:02:20:40:d4:96:c1:18:10:4b:6a:b7:55:1e:81:a0:90:
        14:0a:eb:bc:3a:22:f1:5c:99:33:82:1e:49:7d:0c:1c:3a:c1:
        02:21:00:fd:e0:85:03:3f:26:1d:dc:a6:91:13:75:8d:cd:1b:
        a6:d0:38:07:6d:d0:50:45:07:a6:79:78:03:31:16:ab:ea
-----BEGIN CERTIFICATE-----
MIICLTCCAdOgAwIBAgIBADAKBggqhkjOPQQDAjBpMQswCQYDVQQGEwJpdDELMAkG
A1UECAwCYWExCzAJBgNVBAcMAmFhMQ0wCwYDVQQKDARpcHpzMQ0wCwYDVQQLDARp
cHpzMQ0wCwYDVQQDDARpcHpzMRMwEQYJKoZIhvcNAQkBFgRpcHpzMB4XDTI0MDcw
ODE0MTAwM1oXDTI1MDcwODE0MTAwM1owgYcxCzAJBgNVBAYTAklUMRAwDgYDVQQI
DAdTQUxFUk5PMREwDwYDVQQHDAhGSVNDSUFOTzEOMAwGA1UECgwFVU5JU0ExDTAL
BgNVBAsMBERJRU0xEzARBgNVBAMMCkFQU1BST0pFQ1QxHzAdBgkqhkiG9w0BCQEW
EGNsaWVudEBnbWFpbC5jb20wWTATBgcqhkjOPQIBBggqhkjOPQMBBwNCAATbQsVt
aDmqbBbov0v4SHAjZy3xv9bEEkKOmZkk3GGQdEPyBAIDtFCcbCKEGHUgsWwBERRe
k9f9rwLmqOflMpPBo00wSzAJBgNVHRMEAjAAMB0GA1UdDgQWBBQIaO0s8cF/GQMI
yyslXM7dh836RTAfBgNVHSMEGDAWgBT8PZ/ar/FHfouLdBMJOIWRpty0ETAKBggq
hkjOPQQDAgNIADBFAiBA1JbBGBBLardVHoGgkBQK67w6IvFcmTOCHkl9DBw6wQIh
AP3ghQM/Jh3cppETdY3NG6bQOAdt0FBFB6Z5eAMxFqvq
-----END CERTIFICATE-----
