Certificate:
    Data:
        Version: 3 (0x2)
        Serial Number: 1 (0x1)
        Signature Algorithm: ecdsa-with-SHA256
        Issuer: C=it, ST=aa, L=aa, O=ipzs, OU=ipzs, CN=ipzs/emailAddress=ipzs
        Validity
            Not Before: Jul  8 14:10:07 2024 GMT
            Not After : Jul  8 14:10:07 2025 GMT
        Subject: C=IT, ST=MILANO, L=MILANO, O=CREDENTIALS, OU=CREDENTIALS, CN=CREDENTIALS/emailAddress=credentials@gmail.com
        Subject Public Key Info:
            Public Key Algorithm: id-ecPublicKey
                Public-Key: (256 bit)
                pub:
                    04:9a:38:23:a9:1d:96:83:30:6f:7b:49:a6:45:0c:
                    a2:78:b0:5f:40:71:7b:f5:75:0a:9b:f0:06:53:bf:
                    d9:5c:32:96:82:39:d3:d9:8d:37:9d:71:52:d4:c8:
                    df:9e:a3:92:7f:1b:b0:00:d1:30:9f:18:64:46:58:
                    0b:12:be:bd:30
                ASN1 OID: prime256v1
                NIST CURVE: P-256
        X509v3 extensions:
            X509v3 Basic Constraints: 
                CA:FALSE
            X509v3 Subject Key Identifier: 
                CD:F4:F3:B6:1C:39:A1:38:25:E6:1A:ED:AA:04:49:40:8E:EA:A3:4D
            X509v3 Authority Key Identifier: 
                FC:3D:9F:DA:AF:F1:47:7E:8B:8B:74:13:09:38:85:91:A6:DC:B4:11
    Signature Algorithm: ecdsa-with-SHA256
    Signature Value:
        30:44:02:20:6d:1c:47:fe:03:d6:dd:9a:93:85:e1:1c:b7:8a:
        83:f5:db:f1:18:86:be:5a:98:98:9f:91:47:58:62:85:ae:f6:
        02:20:48:79:f8:46:e4:c5:ff:f8:7a:72:18:e4:83:33:c6:8e:
        16:44:9f:0d:14:1d:34:7a:5f:3a:71:7d:29:93:46:d2
-----BEGIN CERTIFICATE-----
MIICPDCCAeOgAwIBAgIBATAKBggqhkjOPQQDAjBpMQswCQYDVQQGEwJpdDELMAkG
A1UECAwCYWExCzAJBgNVBAcMAmFhMQ0wCwYDVQQKDARpcHpzMQ0wCwYDVQQLDARp
cHpzMQ0wCwYDVQQDDARpcHpzMRMwEQYJKoZIhvcNAQkBFgRpcHpzMB4XDTI0MDcw
ODE0MTAwN1oXDTI1MDcwODE0MTAwN1owgZcxCzAJBgNVBAYTAklUMQ8wDQYDVQQI
DAZNSUxBTk8xDzANBgNVBAcMBk1JTEFOTzEUMBIGA1UECgwLQ1JFREVOVElBTFMx
FDASBgNVBAsMC0NSRURFTlRJQUxTMRQwEgYDVQQDDAtDUkVERU5USUFMUzEkMCIG
CSqGSIb3DQEJARYVY3JlZGVudGlhbHNAZ21haWwuY29tMFkwEwYHKoZIzj0CAQYI
KoZIzj0DAQcDQgAEmjgjqR2WgzBve0mmRQyieLBfQHF79XUKm/AGU7/ZXDKWgjnT
2Y03nXFS1MjfnqOSfxuwANEwnxhkRlgLEr69MKNNMEswCQYDVR0TBAIwADAdBgNV
HQ4EFgQUzfTzthw5oTgl5hrtqgRJQI7qo00wHwYDVR0jBBgwFoAU/D2f2q/xR36L
i3QTCTiFkabctBEwCgYIKoZIzj0EAwIDRwAwRAIgbRxH/gPW3ZqTheEct4qD9dvx
GIa+WpiYn5FHWGKFrvYCIEh5+Ebkxf/4enIY5IMzxo4WRJ8NFB00el86cX0pk0bS
-----END CERTIFICATE-----
